target datalayout = "e-m:e-p270:32:32-p271:32:32-p272:64:64-i64:64-i128:128-f80:128-n8:16:32:64-S128"
target triple = "x86_64-pc-linux-gnu"

%struct.Abc_Obj_t_ = type { ptr, ptr, i32, i32, %struct.Vec_Int_t_, %struct.Vec_Int_t_, %union.anon, %union.anon.0 }
%struct.Vec_Int_t_ = type { i32, i32, ptr }
%union.anon = type { ptr }
%union.anon.0 = type { ptr }
%struct.Sfm_Tim_t_ = type { ptr, ptr, ptr, i32, i32, %struct.Vec_Int_t_, %struct.Vec_Int_t_, %struct.Vec_Wec_t_, %struct.Vec_Int_t_, %struct.Vec_Wrd_t_ }
%struct.Vec_Wec_t_ = type { i32, i32, ptr }
%struct.Vec_Wrd_t_ = type { i32, i32, ptr }

; Function Attrs: inlinehint nounwind uwtable
define internal ptr @Vec_IntEntryP(ptr noundef %0, i32 noundef %1) #2 {
  %3 = alloca ptr, align 8
  %4 = alloca i32, align 4
  store ptr %0, ptr %3, align 8, !tbaa !29
  store i32 %1, ptr %4, align 4, !tbaa !12
  %5 = load ptr, ptr %3, align 8, !tbaa !29
  %6 = getelementptr inbounds nuw %struct.Vec_Int_t_, ptr %5, i32 0, i32 2
  %7 = load ptr, ptr %6, align 8, !tbaa !52
  %8 = load i32, ptr %4, align 4, !tbaa !12
  %9 = sext i32 %8 to i64
  %10 = getelementptr inbounds i32, ptr %7, i64 %9
  ret ptr %10
}

; Function Attrs: inlinehint nounwind uwtable
define internal i32 @Abc_Var2Lit(i32 noundef %0, i32 noundef %1) #2 {
  %3 = alloca i32, align 4
  %4 = alloca i32, align 4
  store i32 %0, ptr %3, align 4, !tbaa !12
  store i32 %1, ptr %4, align 4, !tbaa !12
  %5 = load i32, ptr %3, align 4, !tbaa !12
  %6 = load i32, ptr %3, align 4, !tbaa !12
  %7 = add nsw i32 %5, %6
  %8 = load i32, ptr %4, align 4, !tbaa !12
  %9 = add nsw i32 %7, %8
  ret i32 %9
}

; Function Attrs: inlinehint nounwind uwtable
define internal i32 @Abc_ObjId(ptr noundef %0) #2 {
  %2 = alloca ptr, align 8
  store ptr %0, ptr %2, align 8, !tbaa !8
  %3 = load ptr, ptr %2, align 8, !tbaa !8
  %4 = getelementptr inbounds nuw %struct.Abc_Obj_t_, ptr %3, i32 0, i32 2
  %5 = load i32, ptr %4, align 8, !tbaa !53
  ret i32 %5
}

; Function Attrs: inlinehint nounwind uwtable
define internal i32 @Abc_MaxInt(i32 noundef %0, i32 noundef %1) #2 {
  %3 = alloca i32, align 4
  %4 = alloca i32, align 4
  store i32 %0, ptr %3, align 4, !tbaa !12
  store i32 %1, ptr %4, align 4, !tbaa !12
  %5 = load i32, ptr %3, align 4, !tbaa !12
  %6 = load i32, ptr %4, align 4, !tbaa !12
  %7 = icmp sgt i32 %5, %6
  br i1 %7, label %8, label %10

8:                                                ; preds = %2
  %9 = load i32, ptr %3, align 4, !tbaa !12
  br label %12

10:                                               ; preds = %2
  %11 = load i32, ptr %4, align 4, !tbaa !12
  br label %12

12:                                               ; preds = %10, %8
  %13 = phi i32 [ %9, %8 ], [ %11, %10 ]
  ret i32 %13
}

; Function Attrs: inlinehint nounwind uwtable
define internal ptr @Sfm_TimArr(ptr noundef %0, ptr noundef %1) #2 {
  %3 = alloca ptr, align 8
  %4 = alloca ptr, align 8
  store ptr %0, ptr %3, align 8, !tbaa !3
  store ptr %1, ptr %4, align 8, !tbaa !8
  %5 = load ptr, ptr %3, align 8, !tbaa !3
  %6 = getelementptr inbounds nuw %struct.Sfm_Tim_t_, ptr %5, i32 0, i32 5
  %7 = load ptr, ptr %4, align 8, !tbaa !8
  %8 = call i32 @Abc_ObjId(ptr noundef %7)
  %9 = call i32 @Abc_Var2Lit(i32 noundef %8, i32 noundef 0)
  %10 = call ptr @Vec_IntEntryP(ptr noundef %6, i32 noundef %9)
  ret ptr %10
}

; Function Attrs: inlinehint nounwind uwtable
define internal i32 @Sfm_TimArrMax(ptr noundef %0, ptr noundef %1) #2 {
  %3 = alloca ptr, align 8
  %4 = alloca ptr, align 8
  %5 = alloca ptr, align 8
  store ptr %0, ptr %3, align 8, !tbaa !3
  store ptr %1, ptr %4, align 8, !tbaa !8
  call void @llvm.lifetime.start.p0(i64 8, ptr %5) #9
  %6 = load ptr, ptr %3, align 8, !tbaa !3
  %7 = load ptr, ptr %4, align 8, !tbaa !8
  %8 = call ptr @Sfm_TimArr(ptr noundef %6, ptr noundef %7)
  store ptr %8, ptr %5, align 8, !tbaa !10
  %9 = load ptr, ptr %5, align 8, !tbaa !10
  %10 = getelementptr inbounds i32, ptr %9, i64 0
  %11 = load i32, ptr %10, align 4, !tbaa !12
  %12 = load ptr, ptr %5, align 8, !tbaa !10
  %13 = getelementptr inbounds i32, ptr %12, i64 1
  %14 = load i32, ptr %13, align 4, !tbaa !12
  %15 = call i32 @Abc_MaxInt(i32 noundef %11, i32 noundef %14)
  call void @llvm.lifetime.end.p0(i64 8, ptr %5) #9
  ret i32 %15
}

; Function Attrs: nounwind uwtable
define i32 @Sfm_TimNodeIsNonCritical(ptr noundef %0, ptr noundef %1, ptr noundef %2) #0 {
  %4 = alloca ptr, align 8
  %5 = alloca ptr, align 8
  %6 = alloca ptr, align 8
  store ptr %0, ptr %4, align 8, !tbaa !3
  store ptr %1, ptr %5, align 8, !tbaa !8
  store ptr %2, ptr %6, align 8, !tbaa !8
  %7 = load ptr, ptr %4, align 8, !tbaa !3
  %8 = load ptr, ptr %6, align 8, !tbaa !8
  %9 = call i32 @Sfm_TimArrMax(ptr noundef %7, ptr noundef %8)
  %10 = load ptr, ptr %4, align 8, !tbaa !3
  %11 = getelementptr inbounds nuw %struct.Sfm_Tim_t_, ptr %10, i32 0, i32 4
  %12 = load i32, ptr %11, align 4, !tbaa !78
  %13 = add nsw i32 %9, %12
  %14 = load ptr, ptr %4, align 8, !tbaa !3
  %15 = load ptr, ptr %5, align 8, !tbaa !8
  %16 = call i32 @Sfm_TimArrMax(ptr noundef %14, ptr noundef %15)
  %17 = icmp sle i32 %13, %16
  %18 = zext i1 %17 to i32
  ret i32 %18
}