; Function Attrs: mustprogress nofree norecurse nosync nounwind willreturn memory(read, inaccessiblemem: none) uwtable
define range(i32 0, 2) i32 @Sfm_TimNodeIsNonCritical(ptr noundef readonly captures(none) %0, ptr noundef readonly captures(none) %1, ptr noundef readonly captures(none) %2) local_unnamed_addr #6 {
  %4 = getelementptr i8, ptr %0, i64 40
  %.val6 = load ptr, ptr %4, align 8, !tbaa !3
  %5 = getelementptr i8, ptr %2, i64 16
  %.val7 = load i32, ptr %5, align 8, !tbaa !10
  %6 = shl nsw i32 %.val7, 1
  %7 = sext i32 %6 to i64
  %8 = getelementptr inbounds i32, ptr %.val6, i64 %7
  %9 = load i32, ptr %8, align 4, !tbaa !16
  %10 = getelementptr inbounds nuw i8, ptr %8, i64 4
  %11 = load i32, ptr %10, align 4, !tbaa !16
  %12 = tail call noundef i32 @llvm.smax.i32(i32 %9, i32 %11)
  %13 = getelementptr inbounds nuw i8, ptr %0, i64 28
  %14 = load i32, ptr %13, align 4, !tbaa !65
  %15 = add nsw i32 %12, %14
  %16 = getelementptr i8, ptr %1, i64 16
  %.val5 = load i32, ptr %16, align 8, !tbaa !10
  %17 = shl nsw i32 %.val5, 1
  %18 = sext i32 %17 to i64
  %19 = getelementptr inbounds i32, ptr %.val6, i64 %18
  %20 = load i32, ptr %19, align 4, !tbaa !16
  %21 = getelementptr inbounds nuw i8, ptr %19, i64 4
  %22 = load i32, ptr %21, align 4, !tbaa !16
  %23 = tail call noundef i32 @llvm.smax.i32(i32 %20, i32 %22)
  %24 = icmp sle i32 %15, %23
  %25 = zext i1 %24 to i32
  ret i32 %25
}